---
triple:          'arm64-apple-darwin'
binary-path:     '/Users/setukumar/Documents/C++/output/structfun'
relocations:
  - { offsetInCU: 0x2DC7, offset: 0x2DC7, size: 0x8, addend: 0x0, symName: __ZNSt3__124__put_character_sequenceB7v160006IcNS_11char_traitsIcEEEERNS_13basic_ostreamIT_T0_EES7_PKS4_m, symObjAddr: 0xB9C, symBinAddr: 0x100003284, symSize: 0x1F4 }
  - { offsetInCU: 0x46FE, offset: 0x46FE, size: 0x8, addend: 0x0, symName: __ZNSt3__14endlB7v160006IcNS_11char_traitsIcEEEERNS_13basic_ostreamIT_T0_EES7_, symObjAddr: 0xC0, symBinAddr: 0x1000027A8, symSize: 0x58 }
  - { offsetInCU: 0x473E, offset: 0x473E, size: 0x8, addend: 0x0, symName: __ZNSt3__1lsB7v160006IcNS_11char_traitsIcEENS_9allocatorIcEEEERNS_13basic_ostreamIT_T0_EES9_RKNS_12basic_stringIS6_S7_T1_EE, symObjAddr: 0x118, symBinAddr: 0x100002800, symSize: 0x4C }
  - { offsetInCU: 0x4796, offset: 0x4796, size: 0x8, addend: 0x0, symName: __ZNSt3__119__debug_db_insert_cB7v160006INS_12basic_stringIcNS_11char_traitsIcEENS_9allocatorIcEEEEEEvPT_, symObjAddr: 0x54C, symBinAddr: 0x100002C34, symSize: 0x10 }
  - { offsetInCU: 0x47C7, offset: 0x47C7, size: 0x8, addend: 0x0, symName: __ZNSt3__130__libcpp_is_constant_evaluatedB7v160006Ev, symObjAddr: 0x6EC, symBinAddr: 0x100002DD4, symSize: 0xC }
  - { offsetInCU: 0x47E4, offset: 0x47E4, size: 0x8, addend: 0x0, symName: __ZNSt3__117__libcpp_allocateB7v160006Emm, symObjAddr: 0x9E4, symBinAddr: 0x1000030CC, symSize: 0x28 }
  - { offsetInCU: 0x4821, offset: 0x4821, size: 0x8, addend: 0x0, symName: __ZNSt3__121__libcpp_operator_newB7v160006IJmEEEPvDpT_, symObjAddr: 0xA20, symBinAddr: 0x100003108, symSize: 0x24 }
  - { offsetInCU: 0x485A, offset: 0x485A, size: 0x8, addend: 0x0, symName: __ZNSt3__19use_facetB7v160006INS_5ctypeIcEEEERKT_RKNS_6localeE, symObjAddr: 0xB38, symBinAddr: 0x100003220, symSize: 0x2C }
  - { offsetInCU: 0x4D29, offset: 0x4D29, size: 0x8, addend: 0x0, symName: __ZNSt3__116__pad_and_outputB7v160006IcNS_11char_traitsIcEEEENS_19ostreambuf_iteratorIT_T0_EES6_PKS4_S8_S8_RNS_8ios_baseES4_, symObjAddr: 0xE28, symBinAddr: 0x100003510, symSize: 0x248 }
  - { offsetInCU: 0x4DF8, offset: 0x4DF8, size: 0x8, addend: 0x0, symName: __ZNSt3__112__to_addressB7v160006IKcEEPT_S3_, symObjAddr: 0x1388, symBinAddr: 0x100003A70, symSize: 0x14 }
  - { offsetInCU: 0x4E61, offset: 0x4E61, size: 0x8, addend: 0x0, symName: __ZSt28__throw_bad_array_new_lengthB7v160006v, symObjAddr: 0x9B0, symBinAddr: 0x100003098, symSize: 0x34 }
  - { offsetInCU: 0x72D1, offset: 0x72D1, size: 0x8, addend: 0x0, symName: __Z9printinfoP7Studenti, symObjAddr: 0x0, symBinAddr: 0x1000026E8, symSize: 0x94 }
  - { offsetInCU: 0x7307, offset: 0x7307, size: 0x8, addend: 0x0, symName: __ZNSt3__113basic_ostreamIcNS_11char_traitsIcEEElsB7v160006EPFRS3_S4_E, symObjAddr: 0x94, symBinAddr: 0x10000277C, symSize: 0x2C }
  - { offsetInCU: 0x7339, offset: 0x7339, size: 0x8, addend: 0x0, symName: _main, symObjAddr: 0x164, symBinAddr: 0x10000284C, symSize: 0x27C }
  - { offsetInCU: 0x73BA, offset: 0x73BA, size: 0x8, addend: 0x0, symName: __ZN7StudentC1Ev, symObjAddr: 0x3E0, symBinAddr: 0x100002AC8, symSize: 0x2C }
  - { offsetInCU: 0x73E4, offset: 0x73E4, size: 0x8, addend: 0x0, symName: __ZN7StudentD1Ev, symObjAddr: 0x40C, symBinAddr: 0x100002AF4, symSize: 0x2C }
  - { offsetInCU: 0x740E, offset: 0x740E, size: 0x8, addend: 0x0, symName: __ZNSt3__112basic_stringIcNS_11char_traitsIcEENS_9allocatorIcEEEaSB7v160006EPKc, symObjAddr: 0x444, symBinAddr: 0x100002B2C, symSize: 0x2C }
  - { offsetInCU: 0x7441, offset: 0x7441, size: 0x8, addend: 0x0, symName: __ZN7StudentC2Ev, symObjAddr: 0x470, symBinAddr: 0x100002B58, symSize: 0x30 }
  - { offsetInCU: 0x746B, offset: 0x746B, size: 0x8, addend: 0x0, symName: __ZNSt3__112basic_stringIcNS_11char_traitsIcEENS_9allocatorIcEEEC1B7v160006Ev, symObjAddr: 0x4A0, symBinAddr: 0x100002B88, symSize: 0x2C }
  - { offsetInCU: 0x7493, offset: 0x7493, size: 0x8, addend: 0x0, symName: __ZNSt3__112basic_stringIcNS_11char_traitsIcEENS_9allocatorIcEEEC2B7v160006Ev, symObjAddr: 0x4CC, symBinAddr: 0x100002BB4, symSize: 0x44 }
  - { offsetInCU: 0x74C0, offset: 0x74C0, size: 0x8, addend: 0x0, symName: __ZNSt3__117__compressed_pairINS_12basic_stringIcNS_11char_traitsIcEENS_9allocatorIcEEE5__repES5_EC1B7v160006INS_18__default_init_tagESA_EEOT_OT0_, symObjAddr: 0x510, symBinAddr: 0x100002BF8, symSize: 0x3C }
  - { offsetInCU: 0x7516, offset: 0x7516, size: 0x8, addend: 0x0, symName: __ZNSt3__112basic_stringIcNS_11char_traitsIcEENS_9allocatorIcEEE14__default_initB7v160006Ev, symObjAddr: 0x55C, symBinAddr: 0x100002C44, symSize: 0xB0 }
  - { offsetInCU: 0x7566, offset: 0x7566, size: 0x8, addend: 0x0, symName: __ZNSt3__117__compressed_pairINS_12basic_stringIcNS_11char_traitsIcEENS_9allocatorIcEEE5__repES5_EC2B7v160006INS_18__default_init_tagESA_EEOT_OT0_, symObjAddr: 0x60C, symBinAddr: 0x100002CF4, symSize: 0x3C }
  - { offsetInCU: 0x75BC, offset: 0x75BC, size: 0x8, addend: 0x0, symName: __ZNSt3__122__compressed_pair_elemINS_12basic_stringIcNS_11char_traitsIcEENS_9allocatorIcEEE5__repELi0ELb0EEC2B7v160006ENS_18__default_init_tagE, symObjAddr: 0x648, symBinAddr: 0x100002D30, symSize: 0x14 }
  - { offsetInCU: 0x75EE, offset: 0x75EE, size: 0x8, addend: 0x0, symName: __ZNSt3__122__compressed_pair_elemINS_9allocatorIcEELi1ELb1EEC2B7v160006ENS_18__default_init_tagE, symObjAddr: 0x65C, symBinAddr: 0x100002D44, symSize: 0x2C }
  - { offsetInCU: 0x7620, offset: 0x7620, size: 0x8, addend: 0x0, symName: __ZNSt3__19allocatorIcEC2B7v160006Ev, symObjAddr: 0x688, symBinAddr: 0x100002D70, symSize: 0x2C }
  - { offsetInCU: 0x7648, offset: 0x7648, size: 0x8, addend: 0x0, symName: __ZNSt3__116__non_trivial_ifILb1ENS_9allocatorIcEEEC2B7v160006Ev, symObjAddr: 0x6B4, symBinAddr: 0x100002D9C, symSize: 0x14 }
  - { offsetInCU: 0x7670, offset: 0x7670, size: 0x8, addend: 0x0, symName: __ZNSt3__117__compressed_pairINS_12basic_stringIcNS_11char_traitsIcEENS_9allocatorIcEEE5__repES5_E5firstB7v160006Ev, symObjAddr: 0x6C8, symBinAddr: 0x100002DB0, symSize: 0x24 }
  - { offsetInCU: 0x7695, offset: 0x7695, size: 0x8, addend: 0x0, symName: __ZNSt3__112basic_stringIcNS_11char_traitsIcEENS_9allocatorIcEEE11__recommendB7v160006Em, symObjAddr: 0x6F8, symBinAddr: 0x100002DE0, symSize: 0x9C }
  - { offsetInCU: 0x76C8, offset: 0x76C8, size: 0x8, addend: 0x0, symName: __ZNSt3__116allocator_traitsINS_9allocatorIcEEE8allocateB7v160006ERS2_m, symObjAddr: 0x794, symBinAddr: 0x100002E7C, symSize: 0x2C }
  - { offsetInCU: 0x76FA, offset: 0x76FA, size: 0x8, addend: 0x0, symName: __ZNSt3__112basic_stringIcNS_11char_traitsIcEENS_9allocatorIcEEE7__allocB7v160006Ev, symObjAddr: 0x7C0, symBinAddr: 0x100002EA8, symSize: 0x24 }
  - { offsetInCU: 0x771F, offset: 0x771F, size: 0x8, addend: 0x0, symName: __ZNSt3__112basic_stringIcNS_11char_traitsIcEENS_9allocatorIcEEE16__begin_lifetimeB7v160006EPcm, symObjAddr: 0x7E4, symBinAddr: 0x100002ECC, symSize: 0x14 }
  - { offsetInCU: 0x7751, offset: 0x7751, size: 0x8, addend: 0x0, symName: __ZNSt3__112basic_stringIcNS_11char_traitsIcEENS_9allocatorIcEEE18__set_long_pointerB7v160006EPc, symObjAddr: 0x7F8, symBinAddr: 0x100002EE0, symSize: 0x38 }
  - { offsetInCU: 0x7784, offset: 0x7784, size: 0x8, addend: 0x0, symName: __ZNSt3__112basic_stringIcNS_11char_traitsIcEENS_9allocatorIcEEE14__set_long_capB7v160006Em, symObjAddr: 0x830, symBinAddr: 0x100002F18, symSize: 0x70 }
  - { offsetInCU: 0x77B7, offset: 0x77B7, size: 0x8, addend: 0x0, symName: __ZNSt3__112basic_stringIcNS_11char_traitsIcEENS_9allocatorIcEEE15__set_long_sizeB7v160006Em, symObjAddr: 0x8A0, symBinAddr: 0x100002F88, symSize: 0x38 }
  - { offsetInCU: 0x77EB, offset: 0x77EB, size: 0x8, addend: 0x0, symName: __ZNSt3__122__compressed_pair_elemINS_12basic_stringIcNS_11char_traitsIcEENS_9allocatorIcEEE5__repELi0ELb0EE5__getB7v160006Ev, symObjAddr: 0x8D8, symBinAddr: 0x100002FC0, symSize: 0x14 }
  - { offsetInCU: 0x7810, offset: 0x7810, size: 0x8, addend: 0x0, symName: __ZNSt3__112basic_stringIcNS_11char_traitsIcEENS_9allocatorIcEEE10__align_itB7v160006ILm16EEEmm, symObjAddr: 0x8EC, symBinAddr: 0x100002FD4, symSize: 0x1C }
  - { offsetInCU: 0x783D, offset: 0x783D, size: 0x8, addend: 0x0, symName: __ZNSt3__19allocatorIcE8allocateB7v160006Em, symObjAddr: 0x908, symBinAddr: 0x100002FF0, symSize: 0x84 }
  - { offsetInCU: 0x787A, offset: 0x787A, size: 0x8, addend: 0x0, symName: __ZNSt3__116allocator_traitsINS_9allocatorIcEEE8max_sizeB7v160006IS2_vEEmRKS2_, symObjAddr: 0x98C, symBinAddr: 0x100003074, symSize: 0x24 }
  - { offsetInCU: 0x78A8, offset: 0x78A8, size: 0x8, addend: 0x0, symName: __ZNKSt3__19allocatorIcE8max_sizeB7v160006Ev, symObjAddr: 0xA0C, symBinAddr: 0x1000030F4, symSize: 0x14 }
  - { offsetInCU: 0x78CC, offset: 0x78CC, size: 0x8, addend: 0x0, symName: __ZNSt3__117__compressed_pairINS_12basic_stringIcNS_11char_traitsIcEENS_9allocatorIcEEE5__repES5_E6secondB7v160006Ev, symObjAddr: 0xA44, symBinAddr: 0x10000312C, symSize: 0x24 }
  - { offsetInCU: 0x78F1, offset: 0x78F1, size: 0x8, addend: 0x0, symName: __ZNSt3__122__compressed_pair_elemINS_9allocatorIcEELi1ELb1EE5__getB7v160006Ev, symObjAddr: 0xA68, symBinAddr: 0x100003150, symSize: 0x14 }
  - { offsetInCU: 0x7915, offset: 0x7915, size: 0x8, addend: 0x0, symName: __ZN7StudentD2Ev, symObjAddr: 0xA7C, symBinAddr: 0x100003164, symSize: 0x30 }
  - { offsetInCU: 0x7940, offset: 0x7940, size: 0x8, addend: 0x0, symName: __ZNKSt3__19basic_iosIcNS_11char_traitsIcEEE5widenB7v160006Ec, symObjAddr: 0xAAC, symBinAddr: 0x100003194, symSize: 0x8C }
  - { offsetInCU: 0x79AC, offset: 0x79AC, size: 0x8, addend: 0x0, symName: __ZNKSt3__15ctypeIcE5widenB7v160006Ec, symObjAddr: 0xB64, symBinAddr: 0x10000324C, symSize: 0x38 }
  - { offsetInCU: 0x79DF, offset: 0x79DF, size: 0x8, addend: 0x0, symName: __ZNKSt3__112basic_stringIcNS_11char_traitsIcEENS_9allocatorIcEEE4dataB7v160006Ev, symObjAddr: 0xD90, symBinAddr: 0x100003478, symSize: 0x28 }
  - { offsetInCU: 0x7A03, offset: 0x7A03, size: 0x8, addend: 0x0, symName: __ZNKSt3__112basic_stringIcNS_11char_traitsIcEENS_9allocatorIcEEE4sizeB7v160006Ev, symObjAddr: 0xDB8, symBinAddr: 0x1000034A0, symSize: 0x54 }
  - { offsetInCU: 0x7A46, offset: 0x7A46, size: 0x8, addend: 0x0, symName: __ZNKSt3__113basic_ostreamIcNS_11char_traitsIcEEE6sentrycvbB7v160006Ev, symObjAddr: 0xE0C, symBinAddr: 0x1000034F4, symSize: 0x1C }
  - { offsetInCU: 0x7A6A, offset: 0x7A6A, size: 0x8, addend: 0x0, symName: __ZNSt3__119ostreambuf_iteratorIcNS_11char_traitsIcEEEC1B7v160006ERNS_13basic_ostreamIcS2_EE, symObjAddr: 0x1070, symBinAddr: 0x100003758, symSize: 0x34 }
  - { offsetInCU: 0x7AA1, offset: 0x7AA1, size: 0x8, addend: 0x0, symName: __ZNKSt3__18ios_base5flagsB7v160006Ev, symObjAddr: 0x10A4, symBinAddr: 0x10000378C, symSize: 0x18 }
  - { offsetInCU: 0x7AC8, offset: 0x7AC8, size: 0x8, addend: 0x0, symName: __ZNKSt3__19basic_iosIcNS_11char_traitsIcEEE4fillB7v160006Ev, symObjAddr: 0x10BC, symBinAddr: 0x1000037A4, symSize: 0x64 }
  - { offsetInCU: 0x7AEF, offset: 0x7AEF, size: 0x8, addend: 0x0, symName: __ZNKSt3__119ostreambuf_iteratorIcNS_11char_traitsIcEEE6failedB7v160006Ev, symObjAddr: 0x1120, symBinAddr: 0x100003808, symSize: 0x24 }
  - { offsetInCU: 0x7B13, offset: 0x7B13, size: 0x8, addend: 0x0, symName: __ZNSt3__19basic_iosIcNS_11char_traitsIcEEE8setstateB7v160006Ej, symObjAddr: 0x1144, symBinAddr: 0x10000382C, symSize: 0x2C }
  - { offsetInCU: 0x7B47, offset: 0x7B47, size: 0x8, addend: 0x0, symName: __ZNKSt3__18ios_base5widthB7v160006Ev, symObjAddr: 0x1170, symBinAddr: 0x100003858, symSize: 0x18 }
  - { offsetInCU: 0x7B6D, offset: 0x7B6D, size: 0x8, addend: 0x0, symName: __ZNSt3__115basic_streambufIcNS_11char_traitsIcEEE5sputnB7v160006EPKcl, symObjAddr: 0x1188, symBinAddr: 0x100003870, symSize: 0x3C }
  - { offsetInCU: 0x7BAD, offset: 0x7BAD, size: 0x8, addend: 0x0, symName: __ZNSt3__112basic_stringIcNS_11char_traitsIcEENS_9allocatorIcEEEC1B7v160006Emc, symObjAddr: 0x11C4, symBinAddr: 0x1000038AC, symSize: 0x3C }
  - { offsetInCU: 0x7BF4, offset: 0x7BF4, size: 0x8, addend: 0x0, symName: __ZNSt3__18ios_base5widthB7v160006El, symObjAddr: 0x1200, symBinAddr: 0x1000038E8, symSize: 0x2C }
  - { offsetInCU: 0x7C38, offset: 0x7C38, size: 0x8, addend: 0x0, symName: __ZNSt3__112basic_stringIcNS_11char_traitsIcEENS_9allocatorIcEEEC2B7v160006Emc, symObjAddr: 0x122C, symBinAddr: 0x100003914, symSize: 0x54 }
  - { offsetInCU: 0x7C7E, offset: 0x7C7E, size: 0x8, addend: 0x0, symName: __ZNSt3__119ostreambuf_iteratorIcNS_11char_traitsIcEEEC2B7v160006ERNS_13basic_ostreamIcS2_EE, symObjAddr: 0x1280, symBinAddr: 0x100003968, symSize: 0x68 }
  - { offsetInCU: 0x7CB5, offset: 0x7CB5, size: 0x8, addend: 0x0, symName: __ZNKSt3__19basic_iosIcNS_11char_traitsIcEEE5rdbufB7v160006Ev, symObjAddr: 0x12E8, symBinAddr: 0x1000039D0, symSize: 0x24 }
  - { offsetInCU: 0x7CDC, offset: 0x7CDC, size: 0x8, addend: 0x0, symName: __ZNKSt3__18ios_base5rdbufB7v160006Ev, symObjAddr: 0x130C, symBinAddr: 0x1000039F4, symSize: 0x18 }
  - { offsetInCU: 0x7D01, offset: 0x7D01, size: 0x8, addend: 0x0, symName: __ZNSt3__111char_traitsIcE11eq_int_typeEii, symObjAddr: 0x1324, symBinAddr: 0x100003A0C, symSize: 0x28 }
  - { offsetInCU: 0x7D32, offset: 0x7D32, size: 0x8, addend: 0x0, symName: __ZNSt3__111char_traitsIcE3eofEv, symObjAddr: 0x134C, symBinAddr: 0x100003A34, symSize: 0x8 }
  - { offsetInCU: 0x7D46, offset: 0x7D46, size: 0x8, addend: 0x0, symName: __ZNSt3__18ios_base8setstateB7v160006Ej, symObjAddr: 0x1354, symBinAddr: 0x100003A3C, symSize: 0x34 }
  - { offsetInCU: 0x7D7B, offset: 0x7D7B, size: 0x8, addend: 0x0, symName: __ZNKSt3__112basic_stringIcNS_11char_traitsIcEENS_9allocatorIcEEE13__get_pointerB7v160006Ev, symObjAddr: 0x139C, symBinAddr: 0x100003A84, symSize: 0x54 }
  - { offsetInCU: 0x7D9F, offset: 0x7D9F, size: 0x8, addend: 0x0, symName: __ZNKSt3__112basic_stringIcNS_11char_traitsIcEENS_9allocatorIcEEE9__is_longB7v160006Ev, symObjAddr: 0x13F0, symBinAddr: 0x100003AD8, symSize: 0x74 }
  - { offsetInCU: 0x7DC3, offset: 0x7DC3, size: 0x8, addend: 0x0, symName: __ZNKSt3__112basic_stringIcNS_11char_traitsIcEENS_9allocatorIcEEE18__get_long_pointerB7v160006Ev, symObjAddr: 0x1464, symBinAddr: 0x100003B4C, symSize: 0x28 }
  - { offsetInCU: 0x7DE7, offset: 0x7DE7, size: 0x8, addend: 0x0, symName: __ZNKSt3__112basic_stringIcNS_11char_traitsIcEENS_9allocatorIcEEE19__get_short_pointerB7v160006Ev, symObjAddr: 0x148C, symBinAddr: 0x100003B74, symSize: 0x28 }
  - { offsetInCU: 0x7E0B, offset: 0x7E0B, size: 0x8, addend: 0x0, symName: __ZNKSt3__117__compressed_pairINS_12basic_stringIcNS_11char_traitsIcEENS_9allocatorIcEEE5__repES5_E5firstB7v160006Ev, symObjAddr: 0x14B4, symBinAddr: 0x100003B9C, symSize: 0x24 }
  - { offsetInCU: 0x7E30, offset: 0x7E30, size: 0x8, addend: 0x0, symName: __ZNKSt3__122__compressed_pair_elemINS_12basic_stringIcNS_11char_traitsIcEENS_9allocatorIcEEE5__repELi0ELb0EE5__getB7v160006Ev, symObjAddr: 0x14D8, symBinAddr: 0x100003BC0, symSize: 0x14 }
  - { offsetInCU: 0x7E55, offset: 0x7E55, size: 0x8, addend: 0x0, symName: __ZNSt3__114pointer_traitsIPKcE10pointer_toB7v160006ERS1_, symObjAddr: 0x14EC, symBinAddr: 0x100003BD4, symSize: 0x14 }
  - { offsetInCU: 0x7E77, offset: 0x7E77, size: 0x8, addend: 0x0, symName: __ZNKSt3__112basic_stringIcNS_11char_traitsIcEENS_9allocatorIcEEE15__get_long_sizeB7v160006Ev, symObjAddr: 0x1500, symBinAddr: 0x100003BE8, symSize: 0x28 }
  - { offsetInCU: 0x7E9B, offset: 0x7E9B, size: 0x8, addend: 0x0, symName: __ZNKSt3__112basic_stringIcNS_11char_traitsIcEENS_9allocatorIcEEE16__get_short_sizeB7v160006Ev, symObjAddr: 0x1528, symBinAddr: 0x100003C10, symSize: 0x34 }
...
